target datalayout = "e-m:e-p270:32:32-p271:32:32-p272:64:64-i64:64-i128:128-f80:128-n8:16:32:64-S128"
target triple = "x86_64-pc-linux-gnu"

; Function Attrs: nounwind uwtable
define internal void @vertical_compose_daub97iH0_8bit(ptr noundef %0, ptr noundef %1, ptr noundef %2, i32 noundef %3) #0 {
  %5 = alloca ptr, align 8
  %6 = alloca ptr, align 8
  %7 = alloca ptr, align 8
  %8 = alloca i32, align 4
  %9 = alloca i32, align 4
  %10 = alloca ptr, align 8
  %11 = alloca ptr, align 8
  %12 = alloca ptr, align 8
  store ptr %0, ptr %5, align 8, !tbaa !44
  store ptr %1, ptr %6, align 8, !tbaa !44
  store ptr %2, ptr %7, align 8, !tbaa !44
  store i32 %3, ptr %8, align 4, !tbaa !11
  call void @llvm.lifetime.start.p0(i64 4, ptr %9) #5
  call void @llvm.lifetime.start.p0(i64 8, ptr %10) #5
  %13 = load ptr, ptr %5, align 8, !tbaa !44
  store ptr %13, ptr %10, align 8, !tbaa !48
  call void @llvm.lifetime.start.p0(i64 8, ptr %11) #5
  %14 = load ptr, ptr %6, align 8, !tbaa !44
  store ptr %14, ptr %11, align 8, !tbaa !48
  call void @llvm.lifetime.start.p0(i64 8, ptr %12) #5
  %15 = load ptr, ptr %7, align 8, !tbaa !44
  store ptr %15, ptr %12, align 8, !tbaa !48
  store i32 0, ptr %9, align 4, !tbaa !11
  br label %16

16:                                               ; preds = %49, %4
  %17 = load i32, ptr %9, align 4, !tbaa !11
  %18 = load i32, ptr %8, align 4, !tbaa !11
  %19 = icmp slt i32 %17, %18
  br i1 %19, label %20, label %52

20:                                               ; preds = %16
  %21 = load ptr, ptr %11, align 8, !tbaa !48
  %22 = load i32, ptr %9, align 4, !tbaa !11
  %23 = sext i32 %22 to i64
  %24 = getelementptr inbounds i16, ptr %21, i64 %23
  %25 = load i16, ptr %24, align 2, !tbaa !50
  %26 = sext i16 %25 to i32
  %27 = load ptr, ptr %10, align 8, !tbaa !48
  %28 = load i32, ptr %9, align 4, !tbaa !11
  %29 = sext i32 %28 to i64
  %30 = getelementptr inbounds i16, ptr %27, i64 %29
  %31 = load i16, ptr %30, align 2, !tbaa !50
  %32 = sext i16 %31 to i32
  %33 = load ptr, ptr %12, align 8, !tbaa !48
  %34 = load i32, ptr %9, align 4, !tbaa !11
  %35 = sext i32 %34 to i64
  %36 = getelementptr inbounds i16, ptr %33, i64 %35
  %37 = load i16, ptr %36, align 2, !tbaa !50
  %38 = sext i16 %37 to i32
  %39 = add i32 %32, %38
  %40 = mul i32 6497, %39
  %41 = add i32 %40, 2048
  %42 = ashr i32 %41, 12
  %43 = add i32 %26, %42
  %44 = trunc i32 %43 to i16
  %45 = load ptr, ptr %11, align 8, !tbaa !48
  %46 = load i32, ptr %9, align 4, !tbaa !11
  %47 = sext i32 %46 to i64
  %48 = getelementptr inbounds i16, ptr %45, i64 %47
  store i16 %44, ptr %48, align 2, !tbaa !50
  br label %49

49:                                               ; preds = %20
  %50 = load i32, ptr %9, align 4, !tbaa !11
  %51 = add nsw i32 %50, 1
  store i32 %51, ptr %9, align 4, !tbaa !11
  br label %16, !llvm.loop !81

52:                                               ; preds = %16
  call void @llvm.lifetime.end.p0(i64 8, ptr %12) #5
  call void @llvm.lifetime.end.p0(i64 8, ptr %11) #5
  call void @llvm.lifetime.end.p0(i64 8, ptr %10) #5
  call void @llvm.lifetime.end.p0(i64 4, ptr %9) #5
  ret void
}